target datalayout = "e-m:e-p270:32:32-p271:32:32-p272:64:64-i64:64-i128:128-f80:128-n8:16:32:64-S128"
target triple = "x86_64-pc-linux-gnu"

%struct.FunctionCallInfoBaseData = type { ptr, ptr, ptr, i32, i8, i16, [0 x %struct.NullableDatum] }
%struct.NullableDatum = type { i64, i8 }

@.str.2 = private unnamed_addr constant [6 x i8] c"int.c\00", align 1
@.str.7 = private unnamed_addr constant [21 x i8] c"integer out of range\00", align 1
@__func__.int4abs = private unnamed_addr constant [8 x i8] c"int4abs\00", align 1

; Function Attrs: inlinehint nounwind uwtable
define internal i64 @Int32GetDatum(i32 noundef %0) #2 {
  %2 = alloca i32, align 4
  store i32 %0, ptr %2, align 4
  %3 = load i32, ptr %2, align 4
  %4 = sext i32 %3 to i64
  ret i64 %4
}

; Function Attrs: inlinehint nounwind uwtable
define internal i32 @DatumGetInt32(i64 noundef %0) #2 {
  %2 = alloca i64, align 8
  store i64 %0, ptr %2, align 8
  %3 = load i64, ptr %2, align 8
  %4 = trunc i64 %3 to i32
  ret i32 %4
}

; Function Attrs: nounwind uwtable
define dso_local i64 @int4abs(ptr noundef %0) #0 {
  %2 = alloca ptr, align 8
  %3 = alloca i32, align 4
  %4 = alloca i32, align 4
  store ptr %0, ptr %2, align 8
  call void @llvm.lifetime.start.p0(i64 4, ptr %3) #10
  %5 = load ptr, ptr %2, align 8
  %6 = getelementptr inbounds nuw %struct.FunctionCallInfoBaseData, ptr %5, i32 0, i32 6
  %7 = getelementptr inbounds [0 x %struct.NullableDatum], ptr %6, i64 0, i64 0
  %8 = getelementptr inbounds nuw %struct.NullableDatum, ptr %7, i32 0, i32 0
  %9 = load i64, ptr %8, align 8
  %10 = call i32 @DatumGetInt32(i64 noundef %9)
  store i32 %10, ptr %3, align 4
  call void @llvm.lifetime.start.p0(i64 4, ptr %4) #10
  %11 = load i32, ptr %3, align 4
  %12 = icmp eq i32 %11, -2147483648
  %13 = zext i1 %12 to i32
  %14 = icmp ne i32 %13, 0
  %15 = zext i1 %14 to i32
  %16 = sext i32 %15 to i64
  %17 = call i64 @llvm.expect.i64(i64 %16, i64 0)
  %18 = icmp ne i64 %17, 0
  br i1 %18, label %19, label %31

19:                                               ; preds = %1
  br label %20

20:                                               ; preds = %19
  br i1 true, label %21, label %23

21:                                               ; preds = %20
  %22 = call zeroext i1 @errstart_cold(i32 noundef 21, ptr noundef null) #12
  br i1 %22, label %25, label %28

23:                                               ; preds = %20
  %24 = call zeroext i1 @errstart(i32 noundef 21, ptr noundef null)
  br i1 %24, label %25, label %28

25:                                               ; preds = %23, %21
  %26 = call i32 @errcode(i32 noundef 50331778)
  %27 = call i32 (ptr, ...) @errmsg(ptr noundef @.str.7)
  call void @errfinish(ptr noundef @.str.2, i32 noundef 1199, ptr noundef @__func__.int4abs)
  br label %28

28:                                               ; preds = %25, %23, %21
  unreachable

29:                                               ; No predecessors!
  br label %30

30:                                               ; preds = %29
  br label %31

31:                                               ; preds = %30, %1
  %32 = load i32, ptr %3, align 4
  %33 = icmp slt i32 %32, 0
  br i1 %33, label %34, label %37

34:                                               ; preds = %31
  %35 = load i32, ptr %3, align 4
  %36 = sub i32 0, %35
  br label %39

37:                                               ; preds = %31
  %38 = load i32, ptr %3, align 4
  br label %39

39:                                               ; preds = %37, %34
  %40 = phi i32 [ %36, %34 ], [ %38, %37 ]
  store i32 %40, ptr %4, align 4
  %41 = load i32, ptr %4, align 4
  %42 = call i64 @Int32GetDatum(i32 noundef %41)
  call void @llvm.lifetime.end.p0(i64 4, ptr %4) #10
  call void @llvm.lifetime.end.p0(i64 4, ptr %3) #10
  ret i64 %42
}