; Function Attrs: nounwind uwtable
define dso_local range(i64 0, 2147483648) i64 @int4abs(ptr noundef readonly captures(none) %0) local_unnamed_addr #0 {
  %2 = getelementptr inbounds nuw i8, ptr %0, i64 32
  %3 = load i64, ptr %2, align 8
  %4 = trunc i64 %3 to i32
  %5 = icmp eq i32 %4, -2147483648
  br i1 %5, label %6, label %10, !prof !14

6:                                                ; preds = %1
  %7 = tail call zeroext i1 @errstart_cold(i32 noundef 21, ptr noundef null) #15
  tail call void @llvm.assume(i1 %7)
  %8 = tail call i32 @errcode(i32 noundef 50331778) #13
  %9 = tail call i32 (ptr, ...) @errmsg(ptr noundef nonnull @.str.7) #13
  tail call void @errfinish(ptr noundef nonnull @.str.2, i32 noundef 1199, ptr noundef nonnull @__func__.int4abs) #13
  unreachable

10:                                               ; preds = %1
  %11 = tail call i32 @llvm.abs.i32(i32 %4, i1 true)
  %12 = zext nneg i32 %11 to i64
  ret i64 %12
}